target datalayout = "e-m:e-p270:32:32-p271:32:32-p272:64:64-i64:64-i128:128-f80:128-n8:16:32:64-S128"
target triple = "x86_64-pc-linux-gnu"

; Function Attrs: nounwind uwtable
define hidden zeroext i16 @outStream_writeInt(ptr noundef %0, i32 noundef %1) #0 {
  %3 = alloca ptr, align 8
  %4 = alloca i32, align 4
  store ptr %0, ptr %3, align 8
  store i32 %1, ptr %4, align 4
  %5 = load i32, ptr %4, align 4
  %6 = shl i32 %5, 24
  %7 = load i32, ptr %4, align 4
  %8 = and i32 %7, 65280
  %9 = shl i32 %8, 8
  %10 = or i32 %6, %9
  %11 = load i32, ptr %4, align 4
  %12 = and i32 %11, 16711680
  %13 = ashr i32 %12, 8
  %14 = or i32 %10, %13
  %15 = load i32, ptr %4, align 4
  %16 = and i32 %15, -16777216
  %17 = lshr i32 %16, 24
  %18 = or i32 %14, %17
  store i32 %18, ptr %4, align 4
  %19 = load ptr, ptr %3, align 8
  %20 = call zeroext i16 @writeBytes(ptr noundef %19, ptr noundef %4, i32 noundef 4)
  ret i16 %20
}

; Function Attrs: nounwind uwtable
define hidden zeroext i16 @outStream_writeByteArray(ptr noundef %0, i32 noundef %1, ptr noundef %2) #0 {
  %4 = alloca ptr, align 8
  %5 = alloca i32, align 4
  %6 = alloca ptr, align 8
  store ptr %0, ptr %4, align 8
  store i32 %1, ptr %5, align 4
  store ptr %2, ptr %6, align 8
  %7 = load ptr, ptr %4, align 8
  %8 = load i32, ptr %5, align 4
  %9 = call zeroext i16 @outStream_writeInt(ptr noundef %7, i32 noundef %8)
  %10 = load ptr, ptr %4, align 8
  %11 = load ptr, ptr %6, align 8
  %12 = load i32, ptr %5, align 4
  %13 = call zeroext i16 @writeBytes(ptr noundef %10, ptr noundef %11, i32 noundef %12)
  ret i16 %13
}