; Function Attrs: nounwind uwtable
define hidden zeroext i16 @outStream_writeByteArray(ptr nocapture noundef %0, i32 noundef %1, ptr nocapture noundef readonly %2) local_unnamed_addr #0 {
  %4 = alloca i32, align 4
  call void @llvm.lifetime.start.p0(i64 4, ptr nonnull %4)
  %5 = tail call i32 @llvm.bswap.i32(i32 %1)
  store i32 %5, ptr %4, align 4
  %6 = call fastcc zeroext i16 @writeBytes(ptr noundef %0, ptr noundef nonnull %4, i32 noundef 4)
  call void @llvm.lifetime.end.p0(i64 4, ptr nonnull %4)
  %7 = tail call fastcc zeroext i16 @writeBytes(ptr noundef %0, ptr noundef %2, i32 noundef %1)
  ret i16 %7
}